; Function Attrs: mustprogress uwtable
define void @_ZN6casadi17SerializingStream4packEx(ptr nocapture noundef nonnull readonly align 8 dereferenceable(73) %0, i64 noundef %1) local_unnamed_addr #3 align 2 {
  %3 = alloca i64, align 8
  %4 = getelementptr inbounds i8, ptr %0, i64 72
  %5 = load i8, ptr %4, align 8
  %6 = and i8 %5, 1
  %.not.i = icmp eq i8 %6, 0
  br i1 %.not.i, label %_ZN6casadi17SerializingStream8decorateEc.exit, label %7

7:                                                ; preds = %2
  %8 = getelementptr inbounds i8, ptr %0, i64 64
  %9 = load ptr, ptr %8, align 8
  %10 = tail call noundef nonnull align 8 dereferenceable(8) ptr @_ZNSo3putEc(ptr noundef nonnull align 8 dereferenceable(8) %9, i8 noundef signext 107)
  %11 = load ptr, ptr %8, align 8
  %12 = tail call noundef nonnull align 8 dereferenceable(8) ptr @_ZNSo3putEc(ptr noundef nonnull align 8 dereferenceable(8) %11, i8 noundef signext 101)
  br label %_ZN6casadi17SerializingStream8decorateEc.exit

_ZN6casadi17SerializingStream8decorateEc.exit:    ; preds = %2, %7
  store i64 %1, ptr %3, align 8
  %13 = getelementptr inbounds i8, ptr %0, i64 64
  br label %14

14:                                               ; preds = %_ZN6casadi17SerializingStream8decorateEc.exit, %14
  %indvars.iv = phi i64 [ 0, %_ZN6casadi17SerializingStream8decorateEc.exit ], [ %indvars.iv.next, %14 ]
  %15 = getelementptr inbounds i8, ptr %3, i64 %indvars.iv
  %16 = load i8, ptr %15, align 1
  %17 = load ptr, ptr %13, align 8
  %18 = and i8 %16, 15
  %19 = add nuw nsw i8 %18, 97
  %20 = tail call noundef nonnull align 8 dereferenceable(8) ptr @_ZNSo3putEc(ptr noundef nonnull align 8 dereferenceable(8) %17, i8 noundef signext %19)
  %21 = load ptr, ptr %13, align 8
  %22 = lshr i8 %16, 4
  %narrow.i = add nuw nsw i8 %22, 97
  %23 = tail call noundef nonnull align 8 dereferenceable(8) ptr @_ZNSo3putEc(ptr noundef nonnull align 8 dereferenceable(8) %21, i8 noundef signext %narrow.i)
  %indvars.iv.next = add nuw nsw i64 %indvars.iv, 1
  %exitcond.not = icmp eq i64 %indvars.iv.next, 8
  br i1 %exitcond.not, label %24, label %14, !llvm.loop !17

24:                                               ; preds = %14
  ret void
}